; Function Attrs: mustprogress uwtable
define noundef zeroext i1 @_ZN4base10GetTempDirEPNS_8FilePathE(ptr noundef %0) local_unnamed_addr #0 personality ptr @__gxx_personality_v0 {
  %2 = alloca %"class.base::FilePath", align 8
  %3 = alloca %"class.base::FilePath", align 8
  %4 = tail call ptr @getenv(ptr noundef nonnull @.str.5) #24
  %.not = icmp eq ptr %4, null
  br i1 %.not, label %10, label %_ZN4base16BasicStringPieceINSt7__cxx1112basic_stringIcSt11char_traitsIcESaIcEEEEC2EPKc.exit

_ZN4base16BasicStringPieceINSt7__cxx1112basic_stringIcSt11char_traitsIcESaIcEEEEC2EPKc.exit: ; preds = %1
  call void @llvm.lifetime.start.p0(i64 32, ptr nonnull %2) #24
  %5 = tail call noundef i64 @strlen(ptr noundef nonnull dereferenceable(1) %4) #24
  call void @_ZN4base8FilePathC1ENS_16BasicStringPieceINSt7__cxx1112basic_stringIcSt11char_traitsIcESaIcEEEEE(ptr noundef nonnull align 8 dereferenceable(32) %2, ptr nonnull %4, i64 %5)
  %6 = invoke noundef nonnull align 8 dereferenceable(32) ptr @_ZN4base8FilePathaSERKS0_(ptr noundef nonnull align 8 dereferenceable(32) %0, ptr noundef nonnull align 8 dereferenceable(32) %2)
          to label %7 unwind label %8

7:                                                ; preds = %_ZN4base16BasicStringPieceINSt7__cxx1112basic_stringIcSt11char_traitsIcESaIcEEEEC2EPKc.exit
  call void @_ZN4base8FilePathD1Ev(ptr noundef nonnull align 8 dereferenceable(32) %2) #24
  call void @llvm.lifetime.end.p0(i64 32, ptr nonnull %2) #24
  br label %15

8:                                                ; preds = %_ZN4base16BasicStringPieceINSt7__cxx1112basic_stringIcSt11char_traitsIcESaIcEEEEC2EPKc.exit
  %9 = landingpad { ptr, i32 }
          cleanup
  call void @_ZN4base8FilePathD1Ev(ptr noundef nonnull align 8 dereferenceable(32) %2) #24
  call void @llvm.lifetime.end.p0(i64 32, ptr nonnull %2) #24
  br label %16

10:                                               ; preds = %1
  call void @llvm.lifetime.start.p0(i64 32, ptr nonnull %3) #24
  call void @_ZN4base8FilePathC1ENS_16BasicStringPieceINSt7__cxx1112basic_stringIcSt11char_traitsIcESaIcEEEEE(ptr noundef nonnull align 8 dereferenceable(32) %3, ptr nonnull @.str.6, i64 4)
  %11 = invoke noundef nonnull align 8 dereferenceable(32) ptr @_ZN4base8FilePathaSERKS0_(ptr noundef nonnull align 8 dereferenceable(32) %0, ptr noundef nonnull align 8 dereferenceable(32) %3)
          to label %12 unwind label %13

12:                                               ; preds = %10
  call void @_ZN4base8FilePathD1Ev(ptr noundef nonnull align 8 dereferenceable(32) %3) #24
  call void @llvm.lifetime.end.p0(i64 32, ptr nonnull %3) #24
  br label %15

13:                                               ; preds = %10
  %14 = landingpad { ptr, i32 }
          cleanup
  call void @_ZN4base8FilePathD1Ev(ptr noundef nonnull align 8 dereferenceable(32) %3) #24
  call void @llvm.lifetime.end.p0(i64 32, ptr nonnull %3) #24
  br label %16

15:                                               ; preds = %12, %7
  ret i1 true

16:                                               ; preds = %13, %8
  %.pn = phi { ptr, i32 } [ %9, %8 ], [ %14, %13 ]
  resume { ptr, i32 } %.pn
}